target datalayout = "e-m:e-p270:32:32-p271:32:32-p272:64:64-i64:64-i128:128-f80:128-n8:16:32:64-S128"
target triple = "x86_64-pc-linux-gnu"

@.str.115 = private unnamed_addr constant [11 x i8] c"FILTERSPEC\00", align 1
@.str.117 = private unnamed_addr constant [16 x i8] c"SENDER TEMPLATE\00", align 1
@.str.1490 = private unnamed_addr constant [31 x i8] c"%s: IPv4, Sender %s, Port %d. \00", align 1
@.str.1491 = private unnamed_addr constant [65 x i8] c"%s: IPv4-LSP, Tunnel Source: %s, Short Call ID: %d, LSP ID: %d. \00", align 1
@.str.1492 = private unnamed_addr constant [65 x i8] c"%s: IPv6-LSP, Tunnel Source: %s, Short Call ID: %d, LSP ID: %d. \00", align 1
@.str.1493 = private unnamed_addr constant [36 x i8] c"%s: IPv4-Aggregate, Aggregator %s. \00", align 1
@.str.1494 = private unnamed_addr constant [87 x i8] c"%s: P2MP_LSP_TUNNEL_IPv4, IPv4 tunnel sender address %s, LSP ID: %d, Sub-Group ID %d. \00", align 1
@.str.1495 = private unnamed_addr constant [87 x i8] c"%s: P2MP_LSP_TUNNEL_IPv6, IPv6 tunnel sender address %s, LSP ID: %d, Sub-Group ID %d. \00", align 1
@.str.1496 = private unnamed_addr constant [14 x i8] c"%s: Type %d. \00", align 1

; Function Attrs: null_pointer_is_valid sspstrong uwtable
define internal ptr @summary_template(ptr noundef %0, ptr noundef %1, i32 noundef %2) #1 {
  %4 = alloca ptr, align 8
  %5 = alloca ptr, align 8
  %6 = alloca ptr, align 8
  %7 = alloca i32, align 4
  %8 = alloca ptr, align 8
  %9 = alloca i32, align 4
  store ptr %0, ptr %5, align 8
  store ptr %1, ptr %6, align 8
  store i32 %2, ptr %7, align 4
  call void @llvm.lifetime.start.p0(i64 8, ptr %8) #14
  %10 = load ptr, ptr %6, align 8
  %11 = load i32, ptr %7, align 4
  %12 = add i32 %11, 2
  %13 = call zeroext i8 @tvb_get_uint8(ptr noundef %10, i32 noundef %12)
  %14 = zext i8 %13 to i32
  %15 = icmp eq i32 %14, 10
  br i1 %15, label %16, label %17

16:                                               ; preds = %3
  store ptr @.str.115, ptr %8, align 8
  br label %18

17:                                               ; preds = %3
  store ptr @.str.117, ptr %8, align 8
  br label %18

18:                                               ; preds = %17, %16
  %19 = load ptr, ptr %6, align 8
  %20 = load i32, ptr %7, align 4
  %21 = add i32 %20, 3
  %22 = call zeroext i8 @tvb_get_uint8(ptr noundef %19, i32 noundef %21)
  %23 = zext i8 %22 to i32
  switch i32 %23, label %123 [
    i32 1, label %24
    i32 7, label %38
    i32 8, label %57
    i32 9, label %76
    i32 12, label %85
    i32 13, label %104
  ]

24:                                               ; preds = %18
  %25 = load ptr, ptr %5, align 8
  %26 = load ptr, ptr %8, align 8
  %27 = load ptr, ptr %5, align 8
  %28 = load ptr, ptr %6, align 8
  %29 = load i32, ptr %7, align 4
  %30 = add i32 %29, 4
  %31 = call ptr @tvb_address_to_str(ptr noundef %27, ptr noundef %28, i32 noundef 2, i32 noundef %30)
  %32 = load ptr, ptr %6, align 8
  %33 = load i32, ptr %7, align 4
  %34 = add i32 %33, 10
  %35 = call zeroext i16 @tvb_get_ntohs(ptr noundef %32, i32 noundef %34)
  %36 = zext i16 %35 to i32
  %37 = call noalias ptr (ptr, ptr, ...) @wmem_strdup_printf(ptr noundef %25, ptr noundef @.str.1490, ptr noundef %26, ptr noundef %31, i32 noundef %36)
  store ptr %37, ptr %4, align 8
  store i32 1, ptr %9, align 4
  br label %132

38:                                               ; preds = %18
  %39 = load ptr, ptr %5, align 8
  %40 = load ptr, ptr %8, align 8
  %41 = load ptr, ptr %5, align 8
  %42 = load ptr, ptr %6, align 8
  %43 = load i32, ptr %7, align 4
  %44 = add i32 %43, 4
  %45 = call ptr @tvb_address_to_str(ptr noundef %41, ptr noundef %42, i32 noundef 2, i32 noundef %44)
  %46 = load ptr, ptr %6, align 8
  %47 = load i32, ptr %7, align 4
  %48 = add i32 %47, 8
  %49 = call zeroext i16 @tvb_get_ntohs(ptr noundef %46, i32 noundef %48)
  %50 = zext i16 %49 to i32
  %51 = load ptr, ptr %6, align 8
  %52 = load i32, ptr %7, align 4
  %53 = add i32 %52, 10
  %54 = call zeroext i16 @tvb_get_ntohs(ptr noundef %51, i32 noundef %53)
  %55 = zext i16 %54 to i32
  %56 = call noalias ptr (ptr, ptr, ...) @wmem_strdup_printf(ptr noundef %39, ptr noundef @.str.1491, ptr noundef %40, ptr noundef %45, i32 noundef %50, i32 noundef %55)
  store ptr %56, ptr %4, align 8
  store i32 1, ptr %9, align 4
  br label %132

57:                                               ; preds = %18
  %58 = load ptr, ptr %5, align 8
  %59 = load ptr, ptr %8, align 8
  %60 = load ptr, ptr %5, align 8
  %61 = load ptr, ptr %6, align 8
  %62 = load i32, ptr %7, align 4
  %63 = add i32 %62, 4
  %64 = call ptr @tvb_address_to_str(ptr noundef %60, ptr noundef %61, i32 noundef 3, i32 noundef %63)
  %65 = load ptr, ptr %6, align 8
  %66 = load i32, ptr %7, align 4
  %67 = add i32 %66, 20
  %68 = call zeroext i16 @tvb_get_ntohs(ptr noundef %65, i32 noundef %67)
  %69 = zext i16 %68 to i32
  %70 = load ptr, ptr %6, align 8
  %71 = load i32, ptr %7, align 4
  %72 = add i32 %71, 22
  %73 = call zeroext i16 @tvb_get_ntohs(ptr noundef %70, i32 noundef %72)
  %74 = zext i16 %73 to i32
  %75 = call noalias ptr (ptr, ptr, ...) @wmem_strdup_printf(ptr noundef %58, ptr noundef @.str.1492, ptr noundef %59, ptr noundef %64, i32 noundef %69, i32 noundef %74)
  store ptr %75, ptr %4, align 8
  store i32 1, ptr %9, align 4
  br label %132

76:                                               ; preds = %18
  %77 = load ptr, ptr %5, align 8
  %78 = load ptr, ptr %8, align 8
  %79 = load ptr, ptr %5, align 8
  %80 = load ptr, ptr %6, align 8
  %81 = load i32, ptr %7, align 4
  %82 = add i32 %81, 4
  %83 = call ptr @tvb_address_to_str(ptr noundef %79, ptr noundef %80, i32 noundef 2, i32 noundef %82)
  %84 = call noalias ptr (ptr, ptr, ...) @wmem_strdup_printf(ptr noundef %77, ptr noundef @.str.1493, ptr noundef %78, ptr noundef %83)
  store ptr %84, ptr %4, align 8
  store i32 1, ptr %9, align 4
  br label %132

85:                                               ; preds = %18
  %86 = load ptr, ptr %5, align 8
  %87 = load ptr, ptr %8, align 8
  %88 = load ptr, ptr %5, align 8
  %89 = load ptr, ptr %6, align 8
  %90 = load i32, ptr %7, align 4
  %91 = add i32 %90, 4
  %92 = call ptr @tvb_address_to_str(ptr noundef %88, ptr noundef %89, i32 noundef 2, i32 noundef %91)
  %93 = load ptr, ptr %6, align 8
  %94 = load i32, ptr %7, align 4
  %95 = add i32 %94, 10
  %96 = call zeroext i16 @tvb_get_ntohs(ptr noundef %93, i32 noundef %95)
  %97 = zext i16 %96 to i32
  %98 = load ptr, ptr %6, align 8
  %99 = load i32, ptr %7, align 4
  %100 = add i32 %99, 18
  %101 = call zeroext i16 @tvb_get_ntohs(ptr noundef %98, i32 noundef %100)
  %102 = zext i16 %101 to i32
  %103 = call noalias ptr (ptr, ptr, ...) @wmem_strdup_printf(ptr noundef %86, ptr noundef @.str.1494, ptr noundef %87, ptr noundef %92, i32 noundef %97, i32 noundef %102)
  store ptr %103, ptr %4, align 8
  store i32 1, ptr %9, align 4
  br label %132

104:                                              ; preds = %18
  %105 = load ptr, ptr %5, align 8
  %106 = load ptr, ptr %8, align 8
  %107 = load ptr, ptr %5, align 8
  %108 = load ptr, ptr %6, align 8
  %109 = load i32, ptr %7, align 4
  %110 = add i32 %109, 4
  %111 = call ptr @tvb_address_to_str(ptr noundef %107, ptr noundef %108, i32 noundef 2, i32 noundef %110)
  %112 = load ptr, ptr %6, align 8
  %113 = load i32, ptr %7, align 4
  %114 = add i32 %113, 22
  %115 = call zeroext i16 @tvb_get_ntohs(ptr noundef %112, i32 noundef %114)
  %116 = zext i16 %115 to i32
  %117 = load ptr, ptr %6, align 8
  %118 = load i32, ptr %7, align 4
  %119 = add i32 %118, 40
  %120 = call zeroext i16 @tvb_get_ntohs(ptr noundef %117, i32 noundef %119)
  %121 = zext i16 %120 to i32
  %122 = call noalias ptr (ptr, ptr, ...) @wmem_strdup_printf(ptr noundef %105, ptr noundef @.str.1495, ptr noundef %106, ptr noundef %111, i32 noundef %116, i32 noundef %121)
  store ptr %122, ptr %4, align 8
  store i32 1, ptr %9, align 4
  br label %132

123:                                              ; preds = %18
  %124 = load ptr, ptr %5, align 8
  %125 = load ptr, ptr %8, align 8
  %126 = load ptr, ptr %6, align 8
  %127 = load i32, ptr %7, align 4
  %128 = add i32 %127, 3
  %129 = call zeroext i8 @tvb_get_uint8(ptr noundef %126, i32 noundef %128)
  %130 = zext i8 %129 to i32
  %131 = call noalias ptr (ptr, ptr, ...) @wmem_strdup_printf(ptr noundef %124, ptr noundef @.str.1496, ptr noundef %125, i32 noundef %130)
  store ptr %131, ptr %4, align 8
  store i32 1, ptr %9, align 4
  br label %132

132:                                              ; preds = %123, %104, %85, %76, %57, %38, %24
  call void @llvm.lifetime.end.p0(i64 8, ptr %8) #14
  %133 = load ptr, ptr %4, align 8
  ret ptr %133
}