; Function Attrs: null_pointer_is_valid sspstrong uwtable
define internal fastcc noalias ptr @summary_template(ptr noundef %0, ptr noundef %1, i32 noundef %2) unnamed_addr #1 {
  %4 = add i32 %2, 2
  %5 = tail call zeroext i8 @tvb_get_uint8(ptr noundef %1, i32 noundef %4)
  %6 = icmp eq i8 %5, 10
  %.str.115..str.117 = select i1 %6, ptr @.str.115, ptr @.str.117
  %7 = add i32 %2, 3
  %8 = tail call zeroext i8 @tvb_get_uint8(ptr noundef %1, i32 noundef %7)
  switch i8 %8, label %60 [
    i8 1, label %9
    i8 7, label %16
    i8 8, label %26
    i8 9, label %36
    i8 12, label %40
    i8 13, label %50
  ]

9:                                                ; preds = %3
  %10 = add i32 %2, 4
  %11 = tail call ptr @tvb_address_to_str(ptr noundef %0, ptr noundef %1, i32 noundef 2, i32 noundef %10)
  %12 = add i32 %2, 10
  %13 = tail call zeroext i16 @tvb_get_ntohs(ptr noundef %1, i32 noundef %12)
  %14 = zext i16 %13 to i32
  %15 = tail call noalias ptr (ptr, ptr, ...) @wmem_strdup_printf(ptr noundef %0, ptr noundef nonnull @.str.1490, ptr noundef nonnull %.str.115..str.117, ptr noundef %11, i32 noundef %14)
  br label %64

16:                                               ; preds = %3
  %17 = add i32 %2, 4
  %18 = tail call ptr @tvb_address_to_str(ptr noundef %0, ptr noundef %1, i32 noundef 2, i32 noundef %17)
  %19 = add i32 %2, 8
  %20 = tail call zeroext i16 @tvb_get_ntohs(ptr noundef %1, i32 noundef %19)
  %21 = zext i16 %20 to i32
  %22 = add i32 %2, 10
  %23 = tail call zeroext i16 @tvb_get_ntohs(ptr noundef %1, i32 noundef %22)
  %24 = zext i16 %23 to i32
  %25 = tail call noalias ptr (ptr, ptr, ...) @wmem_strdup_printf(ptr noundef %0, ptr noundef nonnull @.str.1491, ptr noundef nonnull %.str.115..str.117, ptr noundef %18, i32 noundef %21, i32 noundef %24)
  br label %64

26:                                               ; preds = %3
  %27 = add i32 %2, 4
  %28 = tail call ptr @tvb_address_to_str(ptr noundef %0, ptr noundef %1, i32 noundef 3, i32 noundef %27)
  %29 = add i32 %2, 20
  %30 = tail call zeroext i16 @tvb_get_ntohs(ptr noundef %1, i32 noundef %29)
  %31 = zext i16 %30 to i32
  %32 = add i32 %2, 22
  %33 = tail call zeroext i16 @tvb_get_ntohs(ptr noundef %1, i32 noundef %32)
  %34 = zext i16 %33 to i32
  %35 = tail call noalias ptr (ptr, ptr, ...) @wmem_strdup_printf(ptr noundef %0, ptr noundef nonnull @.str.1492, ptr noundef nonnull %.str.115..str.117, ptr noundef %28, i32 noundef %31, i32 noundef %34)
  br label %64

36:                                               ; preds = %3
  %37 = add i32 %2, 4
  %38 = tail call ptr @tvb_address_to_str(ptr noundef %0, ptr noundef %1, i32 noundef 2, i32 noundef %37)
  %39 = tail call noalias ptr (ptr, ptr, ...) @wmem_strdup_printf(ptr noundef %0, ptr noundef nonnull @.str.1493, ptr noundef nonnull %.str.115..str.117, ptr noundef %38)
  br label %64

40:                                               ; preds = %3
  %41 = add i32 %2, 4
  %42 = tail call ptr @tvb_address_to_str(ptr noundef %0, ptr noundef %1, i32 noundef 2, i32 noundef %41)
  %43 = add i32 %2, 10
  %44 = tail call zeroext i16 @tvb_get_ntohs(ptr noundef %1, i32 noundef %43)
  %45 = zext i16 %44 to i32
  %46 = add i32 %2, 18
  %47 = tail call zeroext i16 @tvb_get_ntohs(ptr noundef %1, i32 noundef %46)
  %48 = zext i16 %47 to i32
  %49 = tail call noalias ptr (ptr, ptr, ...) @wmem_strdup_printf(ptr noundef %0, ptr noundef nonnull @.str.1494, ptr noundef nonnull %.str.115..str.117, ptr noundef %42, i32 noundef %45, i32 noundef %48)
  br label %64

50:                                               ; preds = %3
  %51 = add i32 %2, 4
  %52 = tail call ptr @tvb_address_to_str(ptr noundef %0, ptr noundef %1, i32 noundef 2, i32 noundef %51)
  %53 = add i32 %2, 22
  %54 = tail call zeroext i16 @tvb_get_ntohs(ptr noundef %1, i32 noundef %53)
  %55 = zext i16 %54 to i32
  %56 = add i32 %2, 40
  %57 = tail call zeroext i16 @tvb_get_ntohs(ptr noundef %1, i32 noundef %56)
  %58 = zext i16 %57 to i32
  %59 = tail call noalias ptr (ptr, ptr, ...) @wmem_strdup_printf(ptr noundef %0, ptr noundef nonnull @.str.1495, ptr noundef nonnull %.str.115..str.117, ptr noundef %52, i32 noundef %55, i32 noundef %58)
  br label %64

60:                                               ; preds = %3
  %61 = tail call zeroext i8 @tvb_get_uint8(ptr noundef %1, i32 noundef %7)
  %62 = zext i8 %61 to i32
  %63 = tail call noalias ptr (ptr, ptr, ...) @wmem_strdup_printf(ptr noundef %0, ptr noundef nonnull @.str.1496, ptr noundef nonnull %.str.115..str.117, i32 noundef %62)
  br label %64

64:                                               ; preds = %60, %50, %40, %36, %26, %16, %9
  %.056 = phi ptr [ %63, %60 ], [ %59, %50 ], [ %49, %40 ], [ %39, %36 ], [ %35, %26 ], [ %25, %16 ], [ %15, %9 ]
  ret ptr %.056
}